Certificate:
    Data:
        Version: 3 (0x2)
        Serial Number: 3 (0x3)
    Signature Algorithm: sha256WithRSAEncryption
        Issuer: C=CN, ST=GD, O=Tencent, OU=Tencent, CN=localhost/emailAddress=winchua@foxmail.com
        Validity
            Not Before: Apr 27 08:24:21 2020 GMT
            Not After : Apr 27 08:24:21 2021 GMT
        Subject: C=CN, ST=GD, O=Tencent, OU=Music, CN=localhost/emailAddress=winchua@foxmail.com
        Subject Public Key Info:
            Public Key Algorithm: rsaEncryption
                Public-Key: (2048 bit)
                Modulus:
                    00:c8:67:31:c2:c0:e9:8a:3e:55:2f:be:76:0e:9b:
                    48:87:5d:db:c2:c0:18:63:fb:e5:0f:f1:eb:bc:4b:
                    1e:2b:61:4c:58:62:f9:52:35:cb:51:53:fa:ef:45:
                    9b:80:7c:de:22:47:73:a9:72:47:f9:55:e2:e0:fe:
                    e3:dd:bc:57:90:fe:dd:22:35:cf:17:45:fd:c9:40:
                    01:ad:4e:8f:6f:95:f6:b6:fc:58:14:b9:66:80:62:
                    72:b6:20:1a:0e:7b:d2:0c:f2:5a:2e:94:9c:bc:01:
                    51:ca:ff:55:f6:84:16:b3:98:16:dd:b5:d2:0c:24:
                    7f:c9:04:e0:1e:91:95:2b:2c:93:13:75:32:78:80:
                    89:fe:e5:57:bf:55:3b:60:be:7d:2d:1d:60:92:25:
                    79:a7:18:b2:77:34:7a:98:8b:bc:64:1c:e8:c7:e4:
                    5a:ec:11:0e:3a:34:33:cf:48:a5:40:82:8d:10:cb:
                    20:18:cf:d0:e4:01:f4:2a:06:d2:33:b2:ba:3c:f4:
                    9a:28:54:f3:e0:fc:2e:4c:3b:3d:36:82:49:d2:91:
                    5d:2a:36:12:97:7c:66:8c:5d:57:45:c1:ac:b5:f9:
                    8a:df:b1:b0:61:1f:f8:c9:88:99:c4:2c:3d:f8:de:
                    68:c7:ca:2c:35:a5:df:b9:d3:7f:13:89:3f:de:23:
                    92:cf
                Exponent: 65537 (0x10001)
        X509v3 extensions:
            X509v3 Basic Constraints: 
                CA:FALSE
            Netscape Comment: 
                OpenSSL Generated Certificate
            X509v3 Subject Key Identifier: 
                61:99:84:03:7E:A0:60:C0:45:4A:C3:F4:9E:39:18:06:AC:A6:38:57
            X509v3 Authority Key Identifier: 
                keyid:9B:7B:79:9A:CC:48:0E:2B:25:16:A5:2D:5D:D4:9D:98:55:0E:9D:1A

    Signature Algorithm: sha256WithRSAEncryption
         0e:6a:11:d5:2b:43:e7:96:b4:68:e5:36:d8:cd:65:50:46:d7:
         37:1e:21:ac:52:ed:81:eb:03:8c:e6:d4:74:1c:dd:2d:58:1c:
         91:b9:89:c0:06:6d:85:cd:1d:06:29:31:90:bb:4f:83:85:0b:
         d2:e0:3d:22:e1:32:bd:7c:6f:2a:a9:40:d0:dd:b9:5f:8b:5c:
         df:b4:62:93:08:8c:0c:03:c8:c8:52:1a:c9:cd:1f:69:6b:c1:
         68:d5:1d:fb:90:f0:f8:67:ac:ae:9d:20:0d:10:4a:2e:9c:76:
         c6:58:10:8d:41:f3:65:84:d4:98:f8:f3:a4:bc:d9:9c:a0:66:
         2c:87:80:b0:a6:c2:1c:ef:11:03:65:10:14:a6:f1:be:32:5b:
         50:ec:bd:e6:c9:83:d2:13:72:ce:6b:3e:b2:28:c6:27:93:4e:
         9e:9c:62:34:e6:e1:15:fe:4c:93:00:22:57:8d:a4:5a:25:2c:
         93:d9:8d:0c:e8:e6:3d:7b:a9:bc:ea:73:b9:cf:68:bb:c2:a6:
         84:c3:b1:ad:60:57:59:eb:38:11:f2:bb:6a:5c:f2:52:25:b4:
         94:22:56:d2:be:68:f7:c4:ea:99:8c:eb:b7:0f:90:c9:35:6b:
         10:92:46:04:f1:e6:ae:d7:87:14:76:38:c5:58:5d:af:e3:aa:
         4e:e5:39:53
-----BEGIN CERTIFICATE-----
MIID4DCCAsigAwIBAgIBAzANBgkqhkiG9w0BAQsFADB2MQswCQYDVQQGEwJDTjEL
MAkGA1UECAwCR0QxEDAOBgNVBAoMB1RlbmNlbnQxEDAOBgNVBAsMB1RlbmNlbnQx
EjAQBgNVBAMMCWxvY2FsaG9zdDEiMCAGCSqGSIb3DQEJARYTd2luY2h1YUBmb3ht
YWlsLmNvbTAeFw0yMDA0MjcwODI0MjFaFw0yMTA0MjcwODI0MjFaMHQxCzAJBgNV
BAYTAkNOMQswCQYDVQQIDAJHRDEQMA4GA1UECgwHVGVuY2VudDEOMAwGA1UECwwF
TXVzaWMxEjAQBgNVBAMMCWxvY2FsaG9zdDEiMCAGCSqGSIb3DQEJARYTd2luY2h1
YUBmb3htYWlsLmNvbTCCASIwDQYJKoZIhvcNAQEBBQADggEPADCCAQoCggEBAMhn
McLA6Yo+VS++dg6bSIdd28LAGGP75Q/x67xLHithTFhi+VI1y1FT+u9Fm4B83iJH
c6lyR/lV4uD+4928V5D+3SI1zxdF/clAAa1Oj2+V9rb8WBS5ZoBicrYgGg570gzy
Wi6UnLwBUcr/VfaEFrOYFt210gwkf8kE4B6RlSsskxN1MniAif7lV79VO2C+fS0d
YJIleacYsnc0epiLvGQc6MfkWuwRDjo0M89IpUCCjRDLIBjP0OQB9CoG0jOyujz0
mihU8+D8Lkw7PTaCSdKRXSo2Epd8ZoxdV0XBrLX5it+xsGEf+MmImcQsPfjeaMfK
LDWl37nTfxOJP94jks8CAwEAAaN7MHkwCQYDVR0TBAIwADAsBglghkgBhvhCAQ0E
HxYdT3BlblNTTCBHZW5lcmF0ZWQgQ2VydGlmaWNhdGUwHQYDVR0OBBYEFGGZhAN+
oGDARUrD9J45GAaspjhXMB8GA1UdIwQYMBaAFJt7eZrMSA4rJRalLV3UnZhVDp0a
MA0GCSqGSIb3DQEBCwUAA4IBAQAOahHVK0PnlrRo5TbYzWVQRtc3HiGsUu2B6wOM
5tR0HN0tWByRuYnABm2FzR0GKTGQu0+DhQvS4D0i4TK9fG8qqUDQ3blfi1zftGKT
CIwMA8jIUhrJzR9pa8Fo1R37kPD4Z6yunSANEEounHbGWBCNQfNlhNSY+POkvNmc
oGYsh4CwpsIc7xEDZRAUpvG+MltQ7L3myYPSE3LOaz6yKMYnk06enGI05uEV/kyT
ACJXjaRaJSyT2Y0M6OY9e6m86nO5z2i7wqaEw7GtYFdZ6zgR8rtqXPJSJbSUIlbS
vmj3xOqZjOu3D5DJNWsQkkYE8eau14cUdjjFWF2v46pO5TlT
-----END CERTIFICATE-----
