Certificate:
    Data:
        Version: 3 (0x2)
        Serial Number: 1 (0x1)
        Signature Algorithm: sha256WithRSAEncryption
        Issuer: C=CN, ST=GS, O=TC, OU=TC, CN=localhost/emailAddress=winchua@foxmail.com\x09
        Validity
            Not Before: Apr 27 06:40:04 2020 GMT
            Not After : Apr 27 06:40:04 2021 GMT
        Subject: C=CN, ST=GS, O=TC, OU=TC, CN=localhost/emailAddress=winchua@foxmail.com\x09
        Subject Public Key Info:
            Public Key Algorithm: rsaEncryption
                RSA Public-Key: (2048 bit)
                Modulus:
                    00:c0:02:6c:ca:77:4b:2c:2e:2e:be:69:1e:77:75:
                    b5:b9:d2:8a:70:d8:b7:62:fc:b4:32:6b:6d:0c:0b:
                    6c:74:a5:d5:18:a7:57:32:54:97:86:f2:99:0d:c1:
                    0d:d2:37:68:bf:5e:42:c6:f0:09:12:f9:b2:6f:53:
                    bc:59:81:5d:ed:d5:16:07:14:93:7b:4d:10:7d:92:
                    da:6a:90:85:36:9b:52:15:a8:fd:25:48:61:db:dc:
                    a5:ad:ee:cd:5c:47:8a:9b:17:b1:5a:4f:1d:4b:fd:
                    a1:7f:84:36:2c:67:ff:28:7d:6f:c3:8b:f0:59:d2:
                    1c:d7:1e:bd:b3:ca:1e:7f:02:13:c1:1a:7d:6c:7d:
                    d5:a7:cd:53:a9:4b:1c:37:11:a1:89:fb:ce:af:7e:
                    61:df:d6:e7:38:65:38:4c:4e:9a:10:18:af:16:4a:
                    27:a3:e7:06:ba:00:b4:dc:b4:9c:40:8c:02:b2:f3:
                    20:ca:77:a7:d8:2b:60:fa:5c:c8:20:ee:f1:e0:58:
                    14:88:96:dd:19:07:b3:49:af:f7:dc:5d:41:66:fd:
                    fb:99:02:86:07:09:05:66:13:dd:17:45:37:1b:32:
                    9f:5d:76:38:ac:9c:9b:ac:02:a6:d8:d1:e3:31:7e:
                    39:95:9e:0d:1f:07:59:96:5c:be:07:8c:16:a4:df:
                    ba:2b
                Exponent: 65537 (0x10001)
        X509v3 extensions:
            X509v3 Basic Constraints: 
                CA:FALSE
            Netscape Comment: 
                OpenSSL Generated Certificate
            X509v3 Subject Key Identifier: 
                45:33:B1:73:C2:41:03:07:03:84:C5:FF:72:80:D0:77:9A:4F:D6:5A
            X509v3 Authority Key Identifier: 
                keyid:45:33:B1:73:C2:41:03:07:03:84:C5:FF:72:80:D0:77:9A:4F:D6:5A

    Signature Algorithm: sha256WithRSAEncryption
         24:8f:0b:97:1e:02:59:54:a4:27:f3:10:8c:fa:fa:84:6a:9f:
         ca:4c:15:a9:33:9f:ad:67:69:75:28:da:e1:c7:ff:cd:49:cd:
         30:a8:72:17:37:6b:e1:e3:eb:8c:bc:81:3f:94:7c:1d:60:ae:
         cd:5e:44:43:b6:19:53:07:59:5c:c5:35:9f:73:be:f9:ba:e6:
         48:28:1e:6d:3b:21:85:ed:77:a2:82:2f:ad:44:b7:86:1e:f5:
         d4:69:6a:60:a7:4a:76:72:48:10:46:34:70:53:10:23:e0:b2:
         da:c0:19:95:77:bc:ea:bd:b8:41:3d:de:57:fd:02:bf:9d:91:
         f9:5c:df:42:14:6e:bd:8a:4c:15:13:d6:03:cd:96:97:de:39:
         06:ad:59:4f:38:1f:55:25:11:3a:95:8f:5f:31:e9:ba:56:8b:
         a8:ea:c0:2a:9b:10:67:c2:1f:43:2b:d8:ed:df:0d:25:37:f6:
         51:e0:10:70:b2:8a:6c:d3:f3:61:24:fd:73:f8:0d:c2:6a:f5:
         8a:8e:74:72:4f:6e:06:b2:c0:34:d7:9d:0a:1d:af:01:6f:9e:
         a4:16:b1:9c:55:de:65:71:db:d5:77:84:06:55:2c:4a:1e:98:
         5d:95:86:3c:ef:53:db:ad:21:ff:e5:af:6e:ed:73:34:6f:15:
         16:b8:ea:dd
-----BEGIN CERTIFICATE-----
MIID0DCCArigAwIBAgIBATANBgkqhkiG9w0BAQsFADBtMQswCQYDVQQGEwJDTjEL
MAkGA1UECAwCR1MxCzAJBgNVBAoMAlRDMQswCQYDVQQLDAJUQzESMBAGA1UEAwwJ
bG9jYWxob3N0MSMwIQYJKoZIhvcNAQkBFhR3aW5jaHVhQGZveG1haWwuY29tCTAe
Fw0yMDA0MjcwNjQwMDRaFw0yMTA0MjcwNjQwMDRaMG0xCzAJBgNVBAYTAkNOMQsw
CQYDVQQIDAJHUzELMAkGA1UECgwCVEMxCzAJBgNVBAsMAlRDMRIwEAYDVQQDDAls
b2NhbGhvc3QxIzAhBgkqhkiG9w0BCQEWFHdpbmNodWFAZm94bWFpbC5jb20JMIIB
IjANBgkqhkiG9w0BAQEFAAOCAQ8AMIIBCgKCAQEAwAJsyndLLC4uvmked3W1udKK
cNi3Yvy0MmttDAtsdKXVGKdXMlSXhvKZDcEN0jdov15CxvAJEvmyb1O8WYFd7dUW
BxSTe00QfZLaapCFNptSFaj9JUhh29ylre7NXEeKmxexWk8dS/2hf4Q2LGf/KH1v
w4vwWdIc1x69s8oefwITwRp9bH3Vp81TqUscNxGhifvOr35h39bnOGU4TE6aEBiv
Fkono+cGugC03LScQIwCsvMgynen2Ctg+lzIIO7x4FgUiJbdGQezSa/33F1BZv37
mQKGBwkFZhPdF0U3GzKfXXY4rJybrAKm2NHjMX45lZ4NHwdZlly+B4wWpN+6KwID
AQABo3sweTAJBgNVHRMEAjAAMCwGCWCGSAGG+EIBDQQfFh1PcGVuU1NMIEdlbmVy
YXRlZCBDZXJ0aWZpY2F0ZTAdBgNVHQ4EFgQURTOxc8JBAwcDhMX/coDQd5pP1low
HwYDVR0jBBgwFoAURTOxc8JBAwcDhMX/coDQd5pP1lowDQYJKoZIhvcNAQELBQAD
ggEBACSPC5ceAllUpCfzEIz6+oRqn8pMFakzn61naXUo2uHH/81JzTCochc3a+Hj
64y8gT+UfB1grs1eREO2GVMHWVzFNZ9zvvm65kgoHm07IYXtd6KCL61Et4Ye9dRp
amCnSnZySBBGNHBTECPgstrAGZV3vOq9uEE93lf9Ar+dkflc30IUbr2KTBUT1gPN
lpfeOQatWU84H1UlETqVj18x6bpWi6jqwCqbEGfCH0Mr2O3fDSU39lHgEHCyimzT
82Ek/XP4DcJq9YqOdHJPbgaywDTXnQodrwFvnqQWsZxV3mVx29V3hAZVLEoemF2V
hjzvU9utIf/lr27tczRvFRa46t0=
-----END CERTIFICATE-----
