Certificate:
    Data:
        Version: 3 (0x2)
        Serial Number: 2 (0x2)
    Signature Algorithm: sha256WithRSAEncryption
        Issuer: C=CN, ST=GD, O=Tencent, OU=Tencent, CN=localhost/emailAddress=winchua@foxmail.com
        Validity
            Not Before: Apr 27 07:18:05 2020 GMT
            Not After : Apr 27 07:18:05 2021 GMT
        Subject: C=CN, ST=GD, O=Tencent, OU=TC, CN=localhost/emailAddress=winchua@foxmail.com
        Subject Public Key Info:
            Public Key Algorithm: rsaEncryption
                Public-Key: (2048 bit)
                Modulus:
                    00:98:18:ff:fd:4f:7a:83:a0:97:e3:a5:5b:0f:bf:
                    5d:85:d3:f0:ca:d0:20:ec:c7:1a:c9:42:7e:dd:cd:
                    0e:4b:fc:3e:1c:61:91:a8:e4:11:c5:7a:82:85:fb:
                    31:88:80:f7:50:fd:0c:0b:17:19:21:7c:be:a0:1e:
                    b0:d6:b5:0d:78:b2:32:0a:73:b4:c7:b4:1e:3b:ad:
                    d0:b3:6a:07:65:8d:b8:91:e8:13:1e:a0:76:f1:bc:
                    b6:a1:e9:09:b3:18:f6:cc:39:44:d9:0b:f0:c6:e6:
                    0c:d8:de:7d:66:00:06:62:ac:9e:ff:21:d7:a1:4f:
                    db:9a:26:ab:54:97:a2:39:81:9e:13:f5:9b:c3:78:
                    23:d4:3d:a4:6a:e8:d2:ba:7a:94:61:0e:6b:87:07:
                    8b:21:4d:0f:87:22:9e:93:19:14:76:23:4b:f3:e9:
                    36:6b:81:e4:84:af:7c:f6:8f:0f:53:30:d7:fb:92:
                    44:d9:f6:92:33:5b:cd:78:3f:ae:75:15:d8:31:8e:
                    9c:bb:2f:98:4d:db:22:2b:96:cf:2c:56:82:e7:3b:
                    db:fe:66:69:74:56:74:bc:1b:c5:ea:3f:b8:11:12:
                    85:c8:7c:1c:4f:14:9f:65:02:d3:1b:ea:10:ef:99:
                    54:bd:37:43:9d:94:5b:60:14:56:2b:42:1c:cd:cf:
                    2e:af
                Exponent: 65537 (0x10001)
        X509v3 extensions:
            X509v3 Basic Constraints: 
                CA:FALSE
            Netscape Comment: 
                OpenSSL Generated Certificate
            X509v3 Subject Key Identifier: 
                D0:99:63:6A:C4:C0:E8:5C:00:02:3F:1C:1E:21:A0:C9:9D:F8:46:CA
            X509v3 Authority Key Identifier: 
                keyid:9B:7B:79:9A:CC:48:0E:2B:25:16:A5:2D:5D:D4:9D:98:55:0E:9D:1A

    Signature Algorithm: sha256WithRSAEncryption
         7e:f8:4e:2d:39:e9:3a:5b:3a:59:02:f1:aa:6f:12:b5:e8:9b:
         c2:80:d3:f9:f7:51:57:55:a2:24:21:47:09:04:b6:ce:5f:95:
         62:98:33:c9:9e:87:9b:4c:1c:9d:24:91:97:61:e8:22:12:d0:
         44:55:97:32:5a:59:f3:63:d6:59:79:9f:fe:4d:e4:ed:6c:79:
         e4:80:48:78:bd:86:93:ff:6a:ce:81:70:49:cd:29:e5:f3:43:
         1f:07:c3:5e:b3:46:b8:64:04:89:ba:63:2a:ea:b0:1c:03:2a:
         89:f2:8a:0a:92:d6:5e:49:cb:77:22:ee:b0:c2:ff:e1:ed:cd:
         34:05:96:87:9b:28:df:02:1f:20:a6:03:92:58:76:24:e3:4a:
         ae:ef:b0:ef:d7:b9:fe:17:7a:14:48:ea:d8:a3:f8:66:a1:36:
         2f:d7:c5:c7:18:ca:31:07:27:0c:d4:f3:50:e6:7d:70:ff:56:
         1f:25:78:39:41:af:36:80:da:27:09:b7:91:9b:20:e2:db:11:
         36:06:33:6b:64:d7:98:df:66:48:bd:4e:c0:d7:d7:43:a9:db:
         96:b1:a4:66:b0:b0:8f:11:94:3e:60:fd:a3:42:5d:95:29:93:
         af:88:a3:c7:2c:7a:82:3f:fd:dc:ff:b7:3d:e7:45:4c:b5:60:
         4b:fb:2f:12
-----BEGIN CERTIFICATE-----
MIID3TCCAsWgAwIBAgIBAjANBgkqhkiG9w0BAQsFADB2MQswCQYDVQQGEwJDTjEL
MAkGA1UECAwCR0QxEDAOBgNVBAoMB1RlbmNlbnQxEDAOBgNVBAsMB1RlbmNlbnQx
EjAQBgNVBAMMCWxvY2FsaG9zdDEiMCAGCSqGSIb3DQEJARYTd2luY2h1YUBmb3ht
YWlsLmNvbTAeFw0yMDA0MjcwNzE4MDVaFw0yMTA0MjcwNzE4MDVaMHExCzAJBgNV
BAYTAkNOMQswCQYDVQQIDAJHRDEQMA4GA1UECgwHVGVuY2VudDELMAkGA1UECwwC
VEMxEjAQBgNVBAMMCWxvY2FsaG9zdDEiMCAGCSqGSIb3DQEJARYTd2luY2h1YUBm
b3htYWlsLmNvbTCCASIwDQYJKoZIhvcNAQEBBQADggEPADCCAQoCggEBAJgY//1P
eoOgl+OlWw+/XYXT8MrQIOzHGslCft3NDkv8PhxhkajkEcV6goX7MYiA91D9DAsX
GSF8vqAesNa1DXiyMgpztMe0Hjut0LNqB2WNuJHoEx6gdvG8tqHpCbMY9sw5RNkL
8MbmDNjefWYABmKsnv8h16FP25omq1SXojmBnhP1m8N4I9Q9pGro0rp6lGEOa4cH
iyFND4cinpMZFHYjS/PpNmuB5ISvfPaPD1Mw1/uSRNn2kjNbzXg/rnUV2DGOnLsv
mE3bIiuWzyxWguc72/5maXRWdLwbxeo/uBEShch8HE8Un2UC0xvqEO+ZVL03Q52U
W2AUVitCHM3PLq8CAwEAAaN7MHkwCQYDVR0TBAIwADAsBglghkgBhvhCAQ0EHxYd
T3BlblNTTCBHZW5lcmF0ZWQgQ2VydGlmaWNhdGUwHQYDVR0OBBYEFNCZY2rEwOhc
AAI/HB4hoMmd+EbKMB8GA1UdIwQYMBaAFJt7eZrMSA4rJRalLV3UnZhVDp0aMA0G
CSqGSIb3DQEBCwUAA4IBAQB++E4tOek6WzpZAvGqbxK16JvCgNP591FXVaIkIUcJ
BLbOX5VimDPJnoebTBydJJGXYegiEtBEVZcyWlnzY9ZZeZ/+TeTtbHnkgEh4vYaT
/2rOgXBJzSnl80MfB8Nes0a4ZASJumMq6rAcAyqJ8ooKktZeSct3Iu6wwv/h7c00
BZaHmyjfAh8gpgOSWHYk40qu77Dv17n+F3oUSOrYo/hmoTYv18XHGMoxBycM1PNQ
5n1w/1YfJXg5Qa82gNonCbeRmyDi2xE2BjNrZNeY32ZIvU7A19dDqduWsaRmsLCP
EZQ+YP2jQl2VKZOviKPHLHqCP/3c/7c950VMtWBL+y8S
-----END CERTIFICATE-----
